target datalayout = "e-m:e-p270:32:32-p271:32:32-p272:64:64-i64:64-i128:128-f80:128-n8:16:32:64-S128"
target triple = "x86_64-pc-linux-gnu"

%struct.Agobj_s = type { %struct.Agtag_s, ptr }
%struct.Agtag_s = type { i32, i64 }
%struct.Agnodeinfo_t = type { %struct.Agrec_s, ptr, ptr, %struct.pointf_s, double, double, %struct.boxf, double, double, double, double, double, ptr, ptr, ptr, i8, i8, i8, i8, i32, i32, i32, ptr, double, i8, i8, ptr, ptr, i8, i64, i8, i8, i8, ptr, ptr, %struct.elist, %struct.elist, %struct.elist, %struct.elist, %struct.elist, ptr, i32, ptr, i32, i32, double, %struct.elist, %struct.elist, %struct.elist, %struct.elist, ptr, i32, i32, i32, [1 x double] }
%struct.Agrec_s = type { ptr, ptr }
%struct.pointf_s = type { double, double }
%struct.boxf = type { %struct.pointf_s, %struct.pointf_s }
%struct.elist = type { ptr, i64 }
%struct.Agedge_s = type { %struct.Agobj_s, %struct.dtlink_s_, %struct.dtlink_s_, ptr }
%struct.dtlink_s_ = type { ptr, %union.anon }
%union.anon = type { ptr }

@stderr = external global ptr, align 8
@.str.1 = private unnamed_addr constant [58 x i8] c"integer overflow when trying to allocate %zu * %zu bytes\0A\00", align 1
@.str.2 = private unnamed_addr constant [49 x i8] c"out of memory when trying to allocate %zu bytes\0A\00", align 1

; Function Attrs: inlinehint nounwind uwtable
define internal ptr @gv_realloc(ptr noundef %0, i64 noundef %1, i64 noundef %2) #1 {
  %4 = alloca ptr, align 8
  %5 = alloca ptr, align 8
  %6 = alloca i64, align 8
  %7 = alloca i64, align 8
  %8 = alloca ptr, align 8
  store ptr %0, ptr %5, align 8, !tbaa !43
  store i64 %1, ptr %6, align 8, !tbaa !44
  store i64 %2, ptr %7, align 8, !tbaa !44
  %9 = load i64, ptr %7, align 8, !tbaa !44
  %10 = icmp eq i64 %9, 0
  br i1 %10, label %11, label %13

11:                                               ; preds = %3
  %12 = load ptr, ptr %5, align 8, !tbaa !43
  call void @free(ptr noundef %12) #11
  store ptr null, ptr %4, align 8
  br label %36

13:                                               ; preds = %3
  call void @llvm.lifetime.start.p0(i64 8, ptr %8) #11
  %14 = load ptr, ptr %5, align 8, !tbaa !43
  %15 = load i64, ptr %7, align 8, !tbaa !44
  %16 = call ptr @realloc(ptr noundef %14, i64 noundef %15) #15
  store ptr %16, ptr %8, align 8, !tbaa !43
  %17 = load ptr, ptr %8, align 8, !tbaa !43
  %18 = icmp eq ptr %17, null
  br i1 %18, label %19, label %23

19:                                               ; preds = %13
  %20 = load ptr, ptr @stderr, align 8, !tbaa !45
  %21 = load i64, ptr %7, align 8, !tbaa !44
  %22 = call i32 (ptr, ptr, ...) @fprintf(ptr noundef %20, ptr noundef @.str.2, i64 noundef %21) #11
  call void @graphviz_exit(i32 noundef 1) #12
  unreachable

23:                                               ; preds = %13
  %24 = load i64, ptr %7, align 8, !tbaa !44
  %25 = load i64, ptr %6, align 8, !tbaa !44
  %26 = icmp ugt i64 %24, %25
  br i1 %26, label %27, label %34

27:                                               ; preds = %23
  %28 = load ptr, ptr %8, align 8, !tbaa !43
  %29 = load i64, ptr %6, align 8, !tbaa !44
  %30 = getelementptr inbounds nuw i8, ptr %28, i64 %29
  %31 = load i64, ptr %7, align 8, !tbaa !44
  %32 = load i64, ptr %6, align 8, !tbaa !44
  %33 = sub i64 %31, %32
  call void @llvm.memset.p0.i64(ptr align 1 %30, i8 0, i64 %33, i1 false)
  br label %34

34:                                               ; preds = %27, %23
  %35 = load ptr, ptr %8, align 8, !tbaa !43
  store ptr %35, ptr %4, align 8
  call void @llvm.lifetime.end.p0(i64 8, ptr %8) #11
  br label %36

36:                                               ; preds = %34, %11
  %37 = load ptr, ptr %4, align 8
  ret ptr %37
}

; Function Attrs: inlinehint nounwind uwtable
define internal ptr @gv_recalloc(ptr noundef %0, i64 noundef %1, i64 noundef %2, i64 noundef %3) #1 {
  %5 = alloca ptr, align 8
  %6 = alloca i64, align 8
  %7 = alloca i64, align 8
  %8 = alloca i64, align 8
  store ptr %0, ptr %5, align 8, !tbaa !43
  store i64 %1, ptr %6, align 8, !tbaa !44
  store i64 %2, ptr %7, align 8, !tbaa !44
  store i64 %3, ptr %8, align 8, !tbaa !44
  %9 = load i64, ptr %7, align 8, !tbaa !44
  %10 = load i64, ptr %8, align 8, !tbaa !44
  %11 = udiv i64 -1, %10
  %12 = icmp ugt i64 %9, %11
  br i1 %12, label %13, label %18

13:                                               ; preds = %4
  %14 = load ptr, ptr @stderr, align 8, !tbaa !45
  %15 = load i64, ptr %7, align 8, !tbaa !44
  %16 = load i64, ptr %8, align 8, !tbaa !44
  %17 = call i32 (ptr, ptr, ...) @fprintf(ptr noundef %14, ptr noundef @.str.1, i64 noundef %15, i64 noundef %16) #11
  call void @graphviz_exit(i32 noundef 1) #12
  unreachable

18:                                               ; preds = %4
  %19 = load ptr, ptr %5, align 8, !tbaa !43
  %20 = load i64, ptr %6, align 8, !tbaa !44
  %21 = load i64, ptr %8, align 8, !tbaa !44
  %22 = mul i64 %20, %21
  %23 = load i64, ptr %7, align 8, !tbaa !44
  %24 = load i64, ptr %8, align 8, !tbaa !44
  %25 = mul i64 %23, %24
  %26 = call ptr @gv_realloc(ptr noundef %19, i64 noundef %22, i64 noundef %25)
  ret ptr %26
}

; Function Attrs: nounwind uwtable
define void @other_edge(ptr noundef %0) #0 {
  %2 = alloca ptr, align 8
  store ptr %0, ptr %2, align 8, !tbaa !19
  br label %3

3:                                                ; preds = %1
  %4 = load ptr, ptr %2, align 8, !tbaa !19
  %5 = getelementptr inbounds nuw %struct.Agobj_s, ptr %4, i32 0, i32 0
  %6 = load i32, ptr %5, align 8
  %7 = and i32 %6, 3
  %8 = icmp eq i32 %7, 3
  br i1 %8, label %9, label %11

9:                                                ; preds = %3
  %10 = load ptr, ptr %2, align 8, !tbaa !19
  br label %14

11:                                               ; preds = %3
  %12 = load ptr, ptr %2, align 8, !tbaa !19
  %13 = getelementptr inbounds %struct.Agedge_s, ptr %12, i64 1
  br label %14

14:                                               ; preds = %11, %9
  %15 = phi ptr [ %10, %9 ], [ %13, %11 ]
  %16 = getelementptr inbounds nuw %struct.Agedge_s, ptr %15, i32 0, i32 3
  %17 = load ptr, ptr %16, align 8, !tbaa !21
  %18 = getelementptr inbounds nuw %struct.Agobj_s, ptr %17, i32 0, i32 1
  %19 = load ptr, ptr %18, align 8, !tbaa !8
  %20 = getelementptr inbounds nuw %struct.Agnodeinfo_t, ptr %19, i32 0, i32 39
  %21 = getelementptr inbounds nuw %struct.elist, ptr %20, i32 0, i32 0
  %22 = load ptr, ptr %21, align 8, !tbaa !50
  %23 = load ptr, ptr %2, align 8, !tbaa !19
  %24 = getelementptr inbounds nuw %struct.Agobj_s, ptr %23, i32 0, i32 0
  %25 = load i32, ptr %24, align 8
  %26 = and i32 %25, 3
  %27 = icmp eq i32 %26, 3
  br i1 %27, label %28, label %30

28:                                               ; preds = %14
  %29 = load ptr, ptr %2, align 8, !tbaa !19
  br label %33

30:                                               ; preds = %14
  %31 = load ptr, ptr %2, align 8, !tbaa !19
  %32 = getelementptr inbounds %struct.Agedge_s, ptr %31, i64 1
  br label %33

33:                                               ; preds = %30, %28
  %34 = phi ptr [ %29, %28 ], [ %32, %30 ]
  %35 = getelementptr inbounds nuw %struct.Agedge_s, ptr %34, i32 0, i32 3
  %36 = load ptr, ptr %35, align 8, !tbaa !21
  %37 = getelementptr inbounds nuw %struct.Agobj_s, ptr %36, i32 0, i32 1
  %38 = load ptr, ptr %37, align 8, !tbaa !8
  %39 = getelementptr inbounds nuw %struct.Agnodeinfo_t, ptr %38, i32 0, i32 39
  %40 = getelementptr inbounds nuw %struct.elist, ptr %39, i32 0, i32 1
  %41 = load i64, ptr %40, align 8, !tbaa !51
  %42 = add i64 %41, 1
  %43 = load ptr, ptr %2, align 8, !tbaa !19
  %44 = getelementptr inbounds nuw %struct.Agobj_s, ptr %43, i32 0, i32 0
  %45 = load i32, ptr %44, align 8
  %46 = and i32 %45, 3
  %47 = icmp eq i32 %46, 3
  br i1 %47, label %48, label %50

48:                                               ; preds = %33
  %49 = load ptr, ptr %2, align 8, !tbaa !19
  br label %53

50:                                               ; preds = %33
  %51 = load ptr, ptr %2, align 8, !tbaa !19
  %52 = getelementptr inbounds %struct.Agedge_s, ptr %51, i64 1
  br label %53

53:                                               ; preds = %50, %48
  %54 = phi ptr [ %49, %48 ], [ %52, %50 ]
  %55 = getelementptr inbounds nuw %struct.Agedge_s, ptr %54, i32 0, i32 3
  %56 = load ptr, ptr %55, align 8, !tbaa !21
  %57 = getelementptr inbounds nuw %struct.Agobj_s, ptr %56, i32 0, i32 1
  %58 = load ptr, ptr %57, align 8, !tbaa !8
  %59 = getelementptr inbounds nuw %struct.Agnodeinfo_t, ptr %58, i32 0, i32 39
  %60 = getelementptr inbounds nuw %struct.elist, ptr %59, i32 0, i32 1
  %61 = load i64, ptr %60, align 8, !tbaa !51
  %62 = add i64 %61, 2
  %63 = call ptr @gv_recalloc(ptr noundef %22, i64 noundef %42, i64 noundef %62, i64 noundef 8)
  %64 = load ptr, ptr %2, align 8, !tbaa !19
  %65 = getelementptr inbounds nuw %struct.Agobj_s, ptr %64, i32 0, i32 0
  %66 = load i32, ptr %65, align 8
  %67 = and i32 %66, 3
  %68 = icmp eq i32 %67, 3
  br i1 %68, label %69, label %71

69:                                               ; preds = %53
  %70 = load ptr, ptr %2, align 8, !tbaa !19
  br label %74

71:                                               ; preds = %53
  %72 = load ptr, ptr %2, align 8, !tbaa !19
  %73 = getelementptr inbounds %struct.Agedge_s, ptr %72, i64 1
  br label %74

74:                                               ; preds = %71, %69
  %75 = phi ptr [ %70, %69 ], [ %73, %71 ]
  %76 = getelementptr inbounds nuw %struct.Agedge_s, ptr %75, i32 0, i32 3
  %77 = load ptr, ptr %76, align 8, !tbaa !21
  %78 = getelementptr inbounds nuw %struct.Agobj_s, ptr %77, i32 0, i32 1
  %79 = load ptr, ptr %78, align 8, !tbaa !8
  %80 = getelementptr inbounds nuw %struct.Agnodeinfo_t, ptr %79, i32 0, i32 39
  %81 = getelementptr inbounds nuw %struct.elist, ptr %80, i32 0, i32 0
  store ptr %63, ptr %81, align 8, !tbaa !50
  %82 = load ptr, ptr %2, align 8, !tbaa !19
  %83 = load ptr, ptr %2, align 8, !tbaa !19
  %84 = getelementptr inbounds nuw %struct.Agobj_s, ptr %83, i32 0, i32 0
  %85 = load i32, ptr %84, align 8
  %86 = and i32 %85, 3
  %87 = icmp eq i32 %86, 3
  br i1 %87, label %88, label %90

88:                                               ; preds = %74
  %89 = load ptr, ptr %2, align 8, !tbaa !19
  br label %93

90:                                               ; preds = %74
  %91 = load ptr, ptr %2, align 8, !tbaa !19
  %92 = getelementptr inbounds %struct.Agedge_s, ptr %91, i64 1
  br label %93

93:                                               ; preds = %90, %88
  %94 = phi ptr [ %89, %88 ], [ %92, %90 ]
  %95 = getelementptr inbounds nuw %struct.Agedge_s, ptr %94, i32 0, i32 3
  %96 = load ptr, ptr %95, align 8, !tbaa !21
  %97 = getelementptr inbounds nuw %struct.Agobj_s, ptr %96, i32 0, i32 1
  %98 = load ptr, ptr %97, align 8, !tbaa !8
  %99 = getelementptr inbounds nuw %struct.Agnodeinfo_t, ptr %98, i32 0, i32 39
  %100 = getelementptr inbounds nuw %struct.elist, ptr %99, i32 0, i32 0
  %101 = load ptr, ptr %100, align 8, !tbaa !50
  %102 = load ptr, ptr %2, align 8, !tbaa !19
  %103 = getelementptr inbounds nuw %struct.Agobj_s, ptr %102, i32 0, i32 0
  %104 = load i32, ptr %103, align 8
  %105 = and i32 %104, 3
  %106 = icmp eq i32 %105, 3
  br i1 %106, label %107, label %109

107:                                              ; preds = %93
  %108 = load ptr, ptr %2, align 8, !tbaa !19
  br label %112

109:                                              ; preds = %93
  %110 = load ptr, ptr %2, align 8, !tbaa !19
  %111 = getelementptr inbounds %struct.Agedge_s, ptr %110, i64 1
  br label %112

112:                                              ; preds = %109, %107
  %113 = phi ptr [ %108, %107 ], [ %111, %109 ]
  %114 = getelementptr inbounds nuw %struct.Agedge_s, ptr %113, i32 0, i32 3
  %115 = load ptr, ptr %114, align 8, !tbaa !21
  %116 = getelementptr inbounds nuw %struct.Agobj_s, ptr %115, i32 0, i32 1
  %117 = load ptr, ptr %116, align 8, !tbaa !8
  %118 = getelementptr inbounds nuw %struct.Agnodeinfo_t, ptr %117, i32 0, i32 39
  %119 = getelementptr inbounds nuw %struct.elist, ptr %118, i32 0, i32 1
  %120 = load i64, ptr %119, align 8, !tbaa !51
  %121 = add i64 %120, 1
  store i64 %121, ptr %119, align 8, !tbaa !51
  %122 = getelementptr inbounds nuw ptr, ptr %101, i64 %120
  store ptr %82, ptr %122, align 8, !tbaa !19
  %123 = load ptr, ptr %2, align 8, !tbaa !19
  %124 = getelementptr inbounds nuw %struct.Agobj_s, ptr %123, i32 0, i32 0
  %125 = load i32, ptr %124, align 8
  %126 = and i32 %125, 3
  %127 = icmp eq i32 %126, 3
  br i1 %127, label %128, label %130

128:                                              ; preds = %112
  %129 = load ptr, ptr %2, align 8, !tbaa !19
  br label %133

130:                                              ; preds = %112
  %131 = load ptr, ptr %2, align 8, !tbaa !19
  %132 = getelementptr inbounds %struct.Agedge_s, ptr %131, i64 1
  br label %133

133:                                              ; preds = %130, %128
  %134 = phi ptr [ %129, %128 ], [ %132, %130 ]
  %135 = getelementptr inbounds nuw %struct.Agedge_s, ptr %134, i32 0, i32 3
  %136 = load ptr, ptr %135, align 8, !tbaa !21
  %137 = getelementptr inbounds nuw %struct.Agobj_s, ptr %136, i32 0, i32 1
  %138 = load ptr, ptr %137, align 8, !tbaa !8
  %139 = getelementptr inbounds nuw %struct.Agnodeinfo_t, ptr %138, i32 0, i32 39
  %140 = getelementptr inbounds nuw %struct.elist, ptr %139, i32 0, i32 0
  %141 = load ptr, ptr %140, align 8, !tbaa !50
  %142 = load ptr, ptr %2, align 8, !tbaa !19
  %143 = getelementptr inbounds nuw %struct.Agobj_s, ptr %142, i32 0, i32 0
  %144 = load i32, ptr %143, align 8
  %145 = and i32 %144, 3
  %146 = icmp eq i32 %145, 3
  br i1 %146, label %147, label %149

147:                                              ; preds = %133
  %148 = load ptr, ptr %2, align 8, !tbaa !19
  br label %152

149:                                              ; preds = %133
  %150 = load ptr, ptr %2, align 8, !tbaa !19
  %151 = getelementptr inbounds %struct.Agedge_s, ptr %150, i64 1
  br label %152

152:                                              ; preds = %149, %147
  %153 = phi ptr [ %148, %147 ], [ %151, %149 ]
  %154 = getelementptr inbounds nuw %struct.Agedge_s, ptr %153, i32 0, i32 3
  %155 = load ptr, ptr %154, align 8, !tbaa !21
  %156 = getelementptr inbounds nuw %struct.Agobj_s, ptr %155, i32 0, i32 1
  %157 = load ptr, ptr %156, align 8, !tbaa !8
  %158 = getelementptr inbounds nuw %struct.Agnodeinfo_t, ptr %157, i32 0, i32 39
  %159 = getelementptr inbounds nuw %struct.elist, ptr %158, i32 0, i32 1
  %160 = load i64, ptr %159, align 8, !tbaa !51
  %161 = getelementptr inbounds nuw ptr, ptr %141, i64 %160
  store ptr null, ptr %161, align 8, !tbaa !19
  br label %162

162:                                              ; preds = %152
  ret void
}