; Function Attrs: nounwind uwtable
define void @other_edge(ptr noundef %0) local_unnamed_addr #1 {
  %2 = load i32, ptr %0, align 8
  %3 = and i32 %2, 3
  %4 = icmp eq i32 %3, 3
  %5 = getelementptr inbounds nuw i8, ptr %0, i64 64
  %6 = select i1 %4, ptr %0, ptr %5
  %7 = getelementptr inbounds nuw i8, ptr %6, i64 56
  %8 = load ptr, ptr %7, align 8, !tbaa !16
  %9 = getelementptr inbounds nuw i8, ptr %8, i64 16
  %10 = load ptr, ptr %9, align 8, !tbaa !3
  %11 = getelementptr inbounds nuw i8, ptr %10, i64 320
  %12 = load ptr, ptr %11, align 8, !tbaa !44
  %13 = getelementptr inbounds nuw i8, ptr %10, i64 328
  %14 = load i64, ptr %13, align 8, !tbaa !45
  %15 = add i64 %14, 2
  %16 = icmp ugt i64 %15, 2305843009213693951
  br i1 %16, label %17, label %20

17:                                               ; preds = %1
  %18 = load ptr, ptr @stderr, align 8, !tbaa !37
  %19 = tail call i32 (ptr, ptr, ...) @fprintf(ptr noundef %18, ptr noundef nonnull @.str.1, i64 noundef %15, i64 noundef 8) #15
  tail call fastcc void @graphviz_exit() #16
  unreachable

20:                                               ; preds = %1
  %21 = shl i64 %14, 3
  %22 = add i64 %21, 8
  %23 = shl nuw i64 %15, 3
  %24 = icmp eq i64 %15, 0
  br i1 %24, label %25, label %26

25:                                               ; preds = %20
  tail call void @free(ptr noundef %12) #17
  br label %gv_recalloc.exit

26:                                               ; preds = %20
  %27 = tail call ptr @realloc(ptr noundef %12, i64 noundef range(i64 0, -7) %23) #18
  %28 = icmp eq ptr %27, null
  br i1 %28, label %29, label %32

29:                                               ; preds = %26
  %30 = load ptr, ptr @stderr, align 8, !tbaa !37
  %31 = tail call i32 (ptr, ptr, ...) @fprintf(ptr noundef %30, ptr noundef nonnull @.str.2, i64 noundef range(i64 0, -7) %23) #15
  tail call fastcc void @graphviz_exit() #16
  unreachable

32:                                               ; preds = %26
  %33 = icmp ugt i64 %23, %22
  br i1 %33, label %34, label %gv_recalloc.exit

34:                                               ; preds = %32
  %35 = getelementptr inbounds nuw i8, ptr %27, i64 %22
  %36 = sub nuw i64 %23, %22
  tail call void @llvm.memset.p0.i64(ptr nonnull align 1 %35, i8 0, i64 %36, i1 false)
  br label %gv_recalloc.exit

gv_recalloc.exit:                                 ; preds = %25, %32, %34
  %.0.i.i = phi ptr [ null, %25 ], [ %27, %34 ], [ %27, %32 ]
  %37 = load i32, ptr %0, align 8
  %38 = and i32 %37, 3
  %39 = icmp eq i32 %38, 3
  %40 = select i1 %39, ptr %0, ptr %5
  %41 = getelementptr inbounds nuw i8, ptr %40, i64 56
  %42 = load ptr, ptr %41, align 8, !tbaa !16
  %43 = getelementptr inbounds nuw i8, ptr %42, i64 16
  %44 = load ptr, ptr %43, align 8, !tbaa !3
  %45 = getelementptr inbounds nuw i8, ptr %44, i64 320
  store ptr %.0.i.i, ptr %45, align 8, !tbaa !44
  %46 = load i32, ptr %0, align 8
  %47 = and i32 %46, 3
  %48 = icmp eq i32 %47, 3
  %49 = select i1 %48, ptr %0, ptr %5
  %50 = getelementptr inbounds nuw i8, ptr %49, i64 56
  %51 = load ptr, ptr %50, align 8, !tbaa !16
  %52 = getelementptr inbounds nuw i8, ptr %51, i64 16
  %53 = load ptr, ptr %52, align 8, !tbaa !3
  %54 = getelementptr inbounds nuw i8, ptr %53, i64 320
  %55 = load ptr, ptr %54, align 8, !tbaa !44
  %56 = getelementptr inbounds nuw i8, ptr %53, i64 328
  %57 = load i64, ptr %56, align 8, !tbaa !45
  %58 = add i64 %57, 1
  store i64 %58, ptr %56, align 8, !tbaa !45
  %59 = getelementptr inbounds nuw ptr, ptr %55, i64 %57
  store ptr %0, ptr %59, align 8, !tbaa !12
  %60 = load i32, ptr %0, align 8
  %61 = and i32 %60, 3
  %62 = icmp eq i32 %61, 3
  %63 = select i1 %62, ptr %0, ptr %5
  %64 = getelementptr inbounds nuw i8, ptr %63, i64 56
  %65 = load ptr, ptr %64, align 8, !tbaa !16
  %66 = getelementptr inbounds nuw i8, ptr %65, i64 16
  %67 = load ptr, ptr %66, align 8, !tbaa !3
  %68 = getelementptr inbounds nuw i8, ptr %67, i64 320
  %69 = load ptr, ptr %68, align 8, !tbaa !44
  %70 = getelementptr inbounds nuw i8, ptr %67, i64 328
  %71 = load i64, ptr %70, align 8, !tbaa !45
  %72 = getelementptr inbounds nuw ptr, ptr %69, i64 %71
  store ptr null, ptr %72, align 8, !tbaa !12
  ret void
}